; Function Attrs: nounwind sspstrong uwtable
define internal range(i64 0, 21) i64 @builtin_inline_class_285(ptr readnone captures(none) %0, i64 noundef %1) #2 {
  %3 = and i64 %1, 1
  %.not.i.i = icmp eq i64 %3, 0
  br i1 %.not.i.i, label %6, label %4

4:                                                ; preds = %2
  %5 = icmp eq i64 %1, 1
  br label %rb_int_zero_p.exit

6:                                                ; preds = %2
  %7 = tail call i32 @rb_bigzero_p(i64 noundef %1) #26
  %8 = icmp ne i32 %7, 0
  br label %rb_int_zero_p.exit

rb_int_zero_p.exit:                               ; preds = %4, %6
  %.0.i.i = phi i1 [ %5, %4 ], [ %8, %6 ]
  %9 = select i1 %.0.i.i, i64 20, i64 0
  ret i64 %9
}